target datalayout = "e-m:e-p270:32:32-p271:32:32-p272:64:64-i64:64-i128:128-f80:128-n8:16:32:64-S128"
target triple = "x86_64-pc-linux-gnu"

%struct.pg_prng_state = type { i64, i64 }
%struct.BlockSamplerData = type { i32, i32, i32, i32, %struct.pg_prng_state }

; Function Attrs: nounwind uwtable
define dso_local zeroext i1 @BlockSampler_HasMore(ptr noundef %0) #0 {
  %2 = alloca ptr, align 8
  store ptr %0, ptr %2, align 8
  %3 = load ptr, ptr %2, align 8
  %4 = getelementptr inbounds nuw %struct.BlockSamplerData, ptr %3, i32 0, i32 2
  %5 = load i32, ptr %4, align 8
  %6 = load ptr, ptr %2, align 8
  %7 = getelementptr inbounds nuw %struct.BlockSamplerData, ptr %6, i32 0, i32 0
  %8 = load i32, ptr %7, align 8
  %9 = icmp ult i32 %5, %8
  br i1 %9, label %10, label %18

10:                                               ; preds = %1
  %11 = load ptr, ptr %2, align 8
  %12 = getelementptr inbounds nuw %struct.BlockSamplerData, ptr %11, i32 0, i32 3
  %13 = load i32, ptr %12, align 4
  %14 = load ptr, ptr %2, align 8
  %15 = getelementptr inbounds nuw %struct.BlockSamplerData, ptr %14, i32 0, i32 1
  %16 = load i32, ptr %15, align 4
  %17 = icmp slt i32 %13, %16
  br label %18

18:                                               ; preds = %10, %1
  %19 = phi i1 [ false, %1 ], [ %17, %10 ]
  ret i1 %19
}